Certificate:
    Data:
        Version: 3 (0x2)
        Serial Number:
            f4:83:af:e2:06:7a:4c:e5
    Signature Algorithm: sha1WithRSAEncryption
        Issuer: C=US, ST=Missouri, O=Siri Proxy, CN=SiriProxyCA
        Validity
            Not Before: May 30 12:11:03 2013 GMT
            Not After : May 29 12:11:03 2016 GMT
        Subject: C=US, ST=Missouri, O=Siri Proxy, CN=SiriProxyCA
        Subject Public Key Info:
            Public Key Algorithm: rsaEncryption
                Public-Key: (1024 bit)
                Modulus:
                    00:d2:e5:8b:ad:10:a3:f8:39:07:3b:c6:38:c7:e4:
                    72:02:70:79:e3:0d:53:e0:5a:31:23:19:9a:d3:23:
                    96:91:77:8a:a0:2c:be:37:c6:18:36:6c:3f:0b:bb:
                    da:5b:00:70:3d:4f:2a:34:af:9d:70:69:44:bd:e5:
                    fe:4d:0a:21:aa:fa:74:7c:81:ca:57:14:ec:af:a3:
                    85:2d:06:82:11:d4:f2:fb:0b:fa:9d:20:56:21:c4:
                    5f:51:19:76:81:75:9f:c0:7d:72:16:81:fb:f8:d0:
                    e4:84:e7:4a:b9:24:10:b5:fc:3e:da:52:8c:ad:39:
                    50:42:3b:3d:66:26:d3:cb:4d
                Exponent: 65537 (0x10001)
        X509v3 extensions:
            X509v3 Subject Key Identifier: 
                28:A8:05:BF:29:5F:DD:43:37:D6:8B:F6:58:E6:18:62:3F:FA:1C:66
            X509v3 Authority Key Identifier: 
                keyid:28:A8:05:BF:29:5F:DD:43:37:D6:8B:F6:58:E6:18:62:3F:FA:1C:66

            X509v3 Basic Constraints: 
                CA:TRUE
    Signature Algorithm: sha1WithRSAEncryption
         32:cf:e0:cd:73:7e:5f:8a:33:e0:1e:01:61:15:cb:bf:c4:32:
         5a:a2:4f:4d:e9:a8:d5:5f:f3:28:b0:8b:b7:0e:82:95:b7:2c:
         46:cb:0d:2f:8f:05:15:76:a6:79:2b:b3:29:02:44:e7:8f:3d:
         37:8d:96:50:31:fa:e3:d7:fb:3d:4b:8b:54:98:6e:f6:da:11:
         ff:ca:e5:a4:d6:d6:49:fe:9c:b3:a7:83:27:c0:b3:5b:94:19:
         2c:77:70:3b:97:8e:c3:01:37:20:45:a5:e9:c9:66:c3:20:5c:
         2a:17:cd:74:20:c4:5a:5d:14:c3:24:b5:bf:d5:bf:0f:d0:9e:
         d9:77
-----BEGIN CERTIFICATE-----
MIICZDCCAc2gAwIBAgIJAPSDr+IGekzlMA0GCSqGSIb3DQEBBQUAMEsxCzAJBgNV
BAYTAlVTMREwDwYDVQQIDAhNaXNzb3VyaTETMBEGA1UECgwKU2lyaSBQcm94eTEU
MBIGA1UEAwwLU2lyaVByb3h5Q0EwHhcNMTMwNTMwMTIxMTAzWhcNMTYwNTI5MTIx
MTAzWjBLMQswCQYDVQQGEwJVUzERMA8GA1UECAwITWlzc291cmkxEzARBgNVBAoM
ClNpcmkgUHJveHkxFDASBgNVBAMMC1NpcmlQcm94eUNBMIGfMA0GCSqGSIb3DQEB
AQUAA4GNADCBiQKBgQDS5YutEKP4OQc7xjjH5HICcHnjDVPgWjEjGZrTI5aRd4qg
LL43xhg2bD8Lu9pbAHA9Tyo0r51waUS95f5NCiGq+nR8gcpXFOyvo4UtBoIR1PL7
C/qdIFYhxF9RGXaBdZ/AfXIWgfv40OSE50q5JBC1/D7aUoytOVBCOz1mJtPLTQID
AQABo1AwTjAdBgNVHQ4EFgQUKKgFvylf3UM31ov2WOYYYj/6HGYwHwYDVR0jBBgw
FoAUKKgFvylf3UM31ov2WOYYYj/6HGYwDAYDVR0TBAUwAwEB/zANBgkqhkiG9w0B
AQUFAAOBgQAyz+DNc35fijPgHgFhFcu/xDJaok9N6ajVX/MosIu3DoKVtyxGyw0v
jwUVdqZ5K7MpAkTnjz03jZZQMfrj1/s9S4tUmG722hH/yuWk1tZJ/pyzp4MnwLNb
lBksd3A7l47DATcgRaXpyWbDIFwqF810IMRaXRTDJLW/1b8P0J7Zdw==
-----END CERTIFICATE-----
