Certificate:
    Data:
        Version: 3 (0x2)
        Serial Number: 11230735756517858423 (0x9bdb96aae5865c77)
    Signature Algorithm: sha1WithRSAEncryption
        Issuer: C=US, ST=Missouri, O=Siri Proxy, CN=SiriProxyCA
        Validity
            Not Before: May 29 14:30:29 2013 GMT
            Not After : May 28 14:30:29 2016 GMT
        Subject: C=US, ST=Missouri, O=Siri Proxy, CN=SiriProxyCA
        Subject Public Key Info:
            Public Key Algorithm: rsaEncryption
                Public-Key: (1024 bit)
                Modulus:
                    00:c9:99:a9:3c:04:94:ab:e4:6a:ab:42:2d:ba:02:
                    00:50:e7:9e:73:8c:7f:e7:a0:6e:34:ac:45:75:7a:
                    f6:80:6c:8d:db:9d:11:3f:18:5b:9a:6f:a7:c1:52:
                    60:15:f2:a4:be:5c:0e:ce:4b:3b:6c:b3:ab:cf:0a:
                    64:19:10:06:f0:d8:8b:19:36:da:46:85:8c:ba:fb:
                    76:1b:e3:5f:ae:1d:ff:05:11:41:b3:ce:78:af:88:
                    6d:89:5a:7c:2e:36:e4:d0:1d:82:11:48:02:a9:1c:
                    8e:16:25:e5:7d:d4:b4:24:77:5d:a9:26:b2:30:07:
                    03:6e:80:74:18:fb:f7:ca:d9
                Exponent: 65537 (0x10001)
        X509v3 extensions:
            X509v3 Subject Key Identifier: 
                43:15:CF:65:E5:8E:E8:FB:63:31:F2:F8:B6:8A:8A:CA:0E:5C:F0:6C
            X509v3 Authority Key Identifier: 
                keyid:43:15:CF:65:E5:8E:E8:FB:63:31:F2:F8:B6:8A:8A:CA:0E:5C:F0:6C

            X509v3 Basic Constraints: 
                CA:TRUE
    Signature Algorithm: sha1WithRSAEncryption
         c9:90:10:f0:6a:f7:f6:ed:14:05:6a:16:42:e0:c1:55:61:26:
         be:9b:66:c3:68:39:01:6b:65:41:4c:bf:33:85:40:9f:d4:60:
         e1:d5:f7:b5:a3:7e:f2:36:ba:6f:cd:fc:37:a4:7d:7c:22:02:
         62:b6:4f:8a:8a:c6:e3:9b:ec:5a:1a:67:cb:3f:3c:07:e6:bc:
         4a:5d:3a:50:bd:6c:2c:60:90:0c:63:1d:5c:f0:ae:c3:52:8f:
         1a:5a:c6:71:95:96:24:96:f9:45:5f:6f:53:af:d9:d4:98:0c:
         bf:aa:a6:21:91:67:ec:62:b4:d9:4e:77:fe:78:c1:29:95:02:
         ad:90
-----BEGIN CERTIFICATE-----
MIICZDCCAc2gAwIBAgIJAJvblqrlhlx3MA0GCSqGSIb3DQEBBQUAMEsxCzAJBgNV
BAYTAlVTMREwDwYDVQQIDAhNaXNzb3VyaTETMBEGA1UECgwKU2lyaSBQcm94eTEU
MBIGA1UEAwwLU2lyaVByb3h5Q0EwHhcNMTMwNTI5MTQzMDI5WhcNMTYwNTI4MTQz
MDI5WjBLMQswCQYDVQQGEwJVUzERMA8GA1UECAwITWlzc291cmkxEzARBgNVBAoM
ClNpcmkgUHJveHkxFDASBgNVBAMMC1NpcmlQcm94eUNBMIGfMA0GCSqGSIb3DQEB
AQUAA4GNADCBiQKBgQDJmak8BJSr5GqrQi26AgBQ555zjH/noG40rEV1evaAbI3b
nRE/GFuab6fBUmAV8qS+XA7OSztss6vPCmQZEAbw2IsZNtpGhYy6+3Yb41+uHf8F
EUGzzniviG2JWnwuNuTQHYIRSAKpHI4WJeV91LQkd12pJrIwBwNugHQY+/fK2QID
AQABo1AwTjAdBgNVHQ4EFgQUQxXPZeWO6PtjMfL4toqKyg5c8GwwHwYDVR0jBBgw
FoAUQxXPZeWO6PtjMfL4toqKyg5c8GwwDAYDVR0TBAUwAwEB/zANBgkqhkiG9w0B
AQUFAAOBgQDJkBDwavf27RQFahZC4MFVYSa+m2bDaDkBa2VBTL8zhUCf1GDh1fe1
o37yNrpvzfw3pH18IgJitk+Kisbjm+xaGmfLPzwH5rxKXTpQvWwsYJAMYx1c8K7D
Uo8aWsZxlZYklvlFX29Tr9nUmAy/qqYhkWfsYrTZTnf+eMEplQKtkA==
-----END CERTIFICATE-----
