Certificate:
    Data:
        Version: 3 (0x2)
        Serial Number:
            f4:83:af:e2:06:7a:4c:e6
    Signature Algorithm: sha1WithRSAEncryption
        Issuer: C=US, ST=Missouri, O=Siri Proxy, CN=SiriProxyCA
        Validity
            Not Before: May 30 12:11:04 2013 GMT
            Not After : May 30 12:11:04 2014 GMT
        Subject: C=US, ST=Missouri, O=Siri Proxy, CN=*.apple.com
        Subject Public Key Info:
            Public Key Algorithm: rsaEncryption
                Public-Key: (1024 bit)
                Modulus:
                    00:b3:9d:d1:e6:33:e6:01:72:60:ac:fc:01:ab:56:
                    94:ce:22:bc:8b:86:8f:e5:51:fb:8e:d5:df:ff:c0:
                    74:47:bb:0c:da:fb:30:f1:05:33:1c:3d:de:e6:52:
                    10:0f:70:07:71:1b:9a:21:da:8e:06:71:72:b9:5c:
                    15:5e:aa:94:7a:64:7e:4a:dd:4b:d3:13:ac:64:fb:
                    17:49:e8:99:af:b4:f5:48:e6:72:08:4e:0c:cb:e0:
                    97:11:0d:2f:b9:27:cf:43:53:f5:c2:5c:24:ce:06:
                    02:60:51:22:99:34:6b:8a:29:e5:95:be:e7:47:0f:
                    54:56:ff:a3:75:3f:3a:57:d7
                Exponent: 65537 (0x10001)
        X509v3 extensions:
            X509v3 Basic Constraints: 
                CA:FALSE
            Netscape Comment: 
                OpenSSL Generated Certificate
            X509v3 Subject Key Identifier: 
                C1:C4:F6:8D:2F:43:20:E9:7F:4D:E1:57:D4:41:D0:04:02:0A:96:EF
            X509v3 Authority Key Identifier: 
                keyid:28:A8:05:BF:29:5F:DD:43:37:D6:8B:F6:58:E6:18:62:3F:FA:1C:66

    Signature Algorithm: sha1WithRSAEncryption
         54:a9:15:50:39:31:72:37:cb:97:32:53:45:b6:79:ff:df:07:
         34:a1:11:a7:e2:a9:e4:54:b4:55:a6:65:d0:4c:fe:3c:6a:c7:
         8c:ef:68:c2:04:22:00:59:20:08:76:95:46:50:33:3e:85:0c:
         f4:4a:4b:85:3a:4d:fd:a9:64:bf:f6:34:42:54:fa:02:6f:1d:
         af:e8:fa:bf:bb:6c:77:53:37:69:1f:95:ae:3f:ab:02:cb:42:
         e4:02:f6:58:eb:2b:56:ac:5f:f6:17:d0:c7:f4:4e:f0:08:d7:
         36:00:5d:49:6d:ca:db:c7:93:bd:a4:d2:46:36:10:14:6a:e1:
         8e:83
-----BEGIN CERTIFICATE-----
MIICjzCCAfigAwIBAgIJAPSDr+IGekzmMA0GCSqGSIb3DQEBBQUAMEsxCzAJBgNV
BAYTAlVTMREwDwYDVQQIDAhNaXNzb3VyaTETMBEGA1UECgwKU2lyaSBQcm94eTEU
MBIGA1UEAwwLU2lyaVByb3h5Q0EwHhcNMTMwNTMwMTIxMTA0WhcNMTQwNTMwMTIx
MTA0WjBLMQswCQYDVQQGEwJVUzERMA8GA1UECAwITWlzc291cmkxEzARBgNVBAoM
ClNpcmkgUHJveHkxFDASBgNVBAMMCyouYXBwbGUuY29tMIGfMA0GCSqGSIb3DQEB
AQUAA4GNADCBiQKBgQCzndHmM+YBcmCs/AGrVpTOIryLho/lUfuO1d//wHRHuwza
+zDxBTMcPd7mUhAPcAdxG5oh2o4GcXK5XBVeqpR6ZH5K3UvTE6xk+xdJ6JmvtPVI
5nIITgzL4JcRDS+5J89DU/XCXCTOBgJgUSKZNGuKKeWVvudHD1RW/6N1PzpX1wID
AQABo3sweTAJBgNVHRMEAjAAMCwGCWCGSAGG+EIBDQQfFh1PcGVuU1NMIEdlbmVy
YXRlZCBDZXJ0aWZpY2F0ZTAdBgNVHQ4EFgQUwcT2jS9DIOl/TeFX1EHQBAIKlu8w
HwYDVR0jBBgwFoAUKKgFvylf3UM31ov2WOYYYj/6HGYwDQYJKoZIhvcNAQEFBQAD
gYEAVKkVUDkxcjfLlzJTRbZ5/98HNKERp+Kp5FS0VaZl0Ez+PGrHjO9owgQiAFkg
CHaVRlAzPoUM9EpLhTpN/alkv/Y0QlT6Am8dr+j6v7tsd1M3aR+Vrj+rAstC5AL2
WOsrVqxf9hfQx/RO8AjXNgBdSW3K28eTvaTSRjYQFGrhjoM=
-----END CERTIFICATE-----
