Certificate:
    Data:
        Version: 3 (0x2)
        Serial Number: 11230735756517858424 (0x9bdb96aae5865c78)
    Signature Algorithm: sha1WithRSAEncryption
        Issuer: C=US, ST=Missouri, O=Siri Proxy, CN=SiriProxyCA
        Validity
            Not Before: May 29 14:30:29 2013 GMT
            Not After : May 29 14:30:29 2014 GMT
        Subject: C=US, ST=Missouri, O=Siri Proxy, CN=*.apple.com
        Subject Public Key Info:
            Public Key Algorithm: rsaEncryption
                Public-Key: (1024 bit)
                Modulus:
                    00:c1:b4:35:2e:9c:d1:b8:44:d6:cd:58:3a:8e:26:
                    f3:5b:3b:e2:7f:0e:a6:79:2a:dc:c3:27:57:04:8d:
                    42:5f:dd:20:0b:c6:d7:60:95:e2:92:e4:98:57:ef:
                    d5:fd:68:40:29:0a:5f:6e:ad:5d:be:e8:3d:26:21:
                    a4:63:3a:3c:4b:5c:07:cc:30:11:fa:5c:6f:94:44:
                    f0:9b:26:37:8b:50:e3:11:c7:2b:ec:3c:23:09:ed:
                    a7:0e:58:f3:21:94:b2:c2:69:e5:43:3d:3d:d6:8f:
                    bf:b4:d5:29:27:f2:01:a7:10:df:64:d1:78:28:a3:
                    ed:ed:34:40:a0:0a:ea:6b:8f
                Exponent: 65537 (0x10001)
        X509v3 extensions:
            X509v3 Basic Constraints: 
                CA:FALSE
            Netscape Comment: 
                OpenSSL Generated Certificate
            X509v3 Subject Key Identifier: 
                65:8E:D4:09:4D:FD:3A:B4:DE:ED:0E:6F:BA:05:4F:B3:61:0F:6A:F4
            X509v3 Authority Key Identifier: 
                keyid:43:15:CF:65:E5:8E:E8:FB:63:31:F2:F8:B6:8A:8A:CA:0E:5C:F0:6C

    Signature Algorithm: sha1WithRSAEncryption
         0d:37:df:98:c1:f5:25:14:c6:2e:13:20:48:23:ce:3b:db:a6:
         37:a5:59:3c:a9:a0:07:3e:79:5c:3c:ff:c5:7e:18:85:07:54:
         01:ed:af:4e:f3:2d:f1:90:b8:e8:ea:9c:f1:b0:b7:ee:9e:c0:
         a9:49:00:0e:30:71:8d:59:ba:79:6e:ad:73:c1:b8:8c:a9:17:
         43:11:ef:e6:5c:98:37:9c:4f:f1:40:6e:76:bc:02:d2:04:37:
         d8:49:ce:14:46:93:d3:1d:ce:d0:1c:74:88:47:23:66:2a:61:
         1a:62:73:ee:54:49:36:7c:b2:e6:c5:05:fc:8f:26:4d:2c:f2:
         56:54
-----BEGIN CERTIFICATE-----
MIICjzCCAfigAwIBAgIJAJvblqrlhlx4MA0GCSqGSIb3DQEBBQUAMEsxCzAJBgNV
BAYTAlVTMREwDwYDVQQIDAhNaXNzb3VyaTETMBEGA1UECgwKU2lyaSBQcm94eTEU
MBIGA1UEAwwLU2lyaVByb3h5Q0EwHhcNMTMwNTI5MTQzMDI5WhcNMTQwNTI5MTQz
MDI5WjBLMQswCQYDVQQGEwJVUzERMA8GA1UECAwITWlzc291cmkxEzARBgNVBAoM
ClNpcmkgUHJveHkxFDASBgNVBAMMCyouYXBwbGUuY29tMIGfMA0GCSqGSIb3DQEB
AQUAA4GNADCBiQKBgQDBtDUunNG4RNbNWDqOJvNbO+J/DqZ5KtzDJ1cEjUJf3SAL
xtdgleKS5JhX79X9aEApCl9urV2+6D0mIaRjOjxLXAfMMBH6XG+URPCbJjeLUOMR
xyvsPCMJ7acOWPMhlLLCaeVDPT3Wj7+01Skn8gGnEN9k0Xgoo+3tNECgCuprjwID
AQABo3sweTAJBgNVHRMEAjAAMCwGCWCGSAGG+EIBDQQfFh1PcGVuU1NMIEdlbmVy
YXRlZCBDZXJ0aWZpY2F0ZTAdBgNVHQ4EFgQUZY7UCU39OrTe7Q5vugVPs2EPavQw
HwYDVR0jBBgwFoAUQxXPZeWO6PtjMfL4toqKyg5c8GwwDQYJKoZIhvcNAQEFBQAD
gYEADTffmMH1JRTGLhMgSCPOO9umN6VZPKmgBz55XDz/xX4YhQdUAe2vTvMt8ZC4
6Oqc8bC37p7AqUkADjBxjVm6eW6tc8G4jKkXQxHv5lyYN5xP8UBudrwC0gQ32EnO
FEaT0x3O0Bx0iEcjZiphGmJz7lRJNnyy5sUF/I8mTSzyVlQ=
-----END CERTIFICATE-----
